(dp0
S'Ingest.parad-k-stc-imodem_recovered'
p1
S'mi.dataset.driver.zplsc_c.dcl.zplsc_c_dcl_telemetered_driver'
p2
sS'Ingest.flcdr-x-mmp-cds_recovered'
p3
g2
sS'Ingest.dbg-pdbg-cspp_recovered'
p4
g2
sS'Ingest.dosta-abcdjm-ctdbp-dcl_recovered'
p5
g2
sS'Ingest.pco2w-abc-imodem_telemetered'
p6
g2
sS'Ingest.ctdmo-ghqr-sio_recovered'
p7
g2
sS'Ingest.sio-eng-sio_recovered'
p8
g2
sS'Ingest.wavss-a-dcl-full_telemetered'
p9
g2
sS'Ingest.phsen-abcdef_recovered'
p10
g2
sS'Ingest.flntu-x-mmp-cds_recovered'
p11
g2
sS'Ingest.spkir-abj-dcl_recovered'
p12
g2
sS'Ingest.optaa-dj-dcl_telemetered'
p13
g2
sS'Ingest.dosta-abcdjm-ctdbp_recovered'
p14
g2
sS'Ingest.wfp-eng-stc-imodem_telemetered'
p15
g2
sS'Ingest.vel3d-k-wfp-stc_telemetered'
p16
g2
sS'Ingest.fuelcell-eng-dcl_telemetered'
p17
g2
sS'Ingest.velpt-j-cspp_recovered'
p18
g2
sS'Ingest.rasfl-a-subcon_recovered'
p19
g2
sS'Ingest.optaa-dj-dcl_recovered'
p20
g2
sS'Ingest.flort-kn-stc-imodem_recovered'
p21
g2
sS'Ingest.flord-l-wfp_recovered'
p22
g2
sS'Ingest.adcpt-m-fcoeff_recovered'
p23
g2
sS'Ingest.wc-wm-cspp_telemetered'
p24
g2
sS'Ingest.flobn-m-subcon_recovered'
p25
g2
sS'Ingest.flort-dj-dcl_recovered'
p26
g2
sS'Ingest.fdchp-a-dcl_recovered'
p27
g2
sS'Ingest.flort-dj-sio_telemetered'
p28
g2
sS'Ingest.adcpa-n_recovered'
p29
g2
sS'Ingest.flort-m-glider_telemetered'
p30
g2
sS'Ingest.rte-o-dcl_telemetered'
p31
g2
sS'Ingest.flobn-m-subcon-temperature_recovered'
p32
g2
sS'Ingest.ctdmo-ghqr-sio_telemetered'
p33
g2
sS'Ingest.parad-m-glider_telemetered'
p34
g2
sS'Ingest.ctdmo-ghqr-imodem_telemetered'
p35
g2
sS'Ingest.pco2w-abc-imodem_recovered'
p36
g2
sS'Ingest.flobn-c-subcon_recovered'
p37
g2
sS'Ingest.adcpa-n-auv_telemetered'
p38
g2
sS'Ingest.flort-dj-dcl_telemetered'
p39
g2
sS'Ingest.adcpt-acfgm-dcl-pd0_telemetered'
p40
g2
sS'Ingest.parad-n-auv_telemetered'
p41
g2
sS'Ingest.hyd-o-dcl_telemetered'
p42
g2
sS'Ingest.dosta-abcdjm-ctdbp-dcl_telemetered'
p43
g2
sS'Ingest.wc-sbe-cspp_telemetered'
p44
g2
sS'Ingest.dosta-abcdjm-dcl_recovered'
p45
g2
sS'Ingest.adcpt-acfgm-dcl-pd0_recovered'
p46
g2
sS'Ingest.adcpa-m-glider_telemetered'
p47
g2
sS'Ingest.vel3d-l-wfp_recovered'
p48
g2
sS'Ingest.deep-profiler_recovered'
p49
g2
sS'Ingest.ctdpf-j-cspp_telemetered'
p50
g2
sS'Ingest.adcpt-m-dspec_recovered'
p51
g2
sS'Ingest.ctdpf-j-cspp_recovered'
p52
g2
sS'Ingest.dosta-ln-auv_telemetered'
p53
g2
sS'Ingest.ctdmo-ghqr-imodem_recovered'
p54
g2
sS'Ingest.fdchp-a-dcl_telemetered'
p55
g2
sS'Ingest.auv-eng-auv_recovered'
p56
g2
sS'Ingest.dbg-pdbg-cspp_telemetered'
p57
g2
sS'Ingest.phsen-abcdef-imodem_telemetered'
p58
g2
sS'Ingest.optaa-dj-cspp_telemetered'
p59
g2
sS'Ingest.velpt-j-cspp_telemetered'
p60
g2
sS'Ingest.wfp-eng-stc-imodem_recovered'
p61
g2
sS'Ingest.parad-n-auv_recovered'
p62
g2
sS'Ingest.nutnr-b-dcl-conc_telemetered'
p63
g2
sS'Ingest.adcps-jln-stc_recovered'
p64
g2
sS'Ingest.ctdav-n-auv_recovered'
p65
g2
sS'Ingest.vel3d-k-wfp-stc_recovered'
p66
g2
sS'Ingest.flort-dj-cspp_recovered'
p67
g2
sS'Ingest.nutnr-m_recovered'
p68
g2
sS'Ingest.ppsdn-a-subcon_recovered'
p69
g2
sS'Ingest.presf-abc-dcl_recovered'
p70
g2
sS'Ingest.ctdpf-ckl-wfp_recovered'
p71
g2
sS'Ingest.cg-dcl-eng-dcl_telemetered'
p72
g2
sS'Ingest.vel3d-l-wfp-sio_telemetered'
p73
g2
sS'Ingest.cg-cpm-eng-cpm_telemetered'
p74
g2
sS'Ingest.nutnr-m-glider_telemetered'
p75
g2
sS'Ingest.parad-k-stc-imodem_telemetered'
p76
g2
sS'Ingest.metbk-a-dcl_recovered'
p77
g2
sS'Ingest.spkir-abj-cspp_recovered'
p78
g2
sS'Ingest.adcpt-m-wvs_recovered'
p79
g2
sS'Ingest.pco2w-abc-dcl_telemetered'
p80
g2
sS'Ingest.adcps-jln-sio_recovered'
p81
g2
sS'Ingest.winch-cspp_telemetered'
p82
g2
sS'Ingest.nutnr-b-dcl-full_recovered'
p83
g2
sS'Ingest.pco2w-abc_recovered'
p84
g2
sS'Ingest.flort-dj-sio_recovered'
p85
g2
sS'Ingest.cg-cpm-eng-cpm_recovered'
p86
g2
sS'Ingest.flord-m-glider_recovered'
p87
g2
sS'Ingest.dosta-ln-wfp_recovered'
p88
g2
sS'Ingest.nutnr-n-auv_telemetered'
p89
g2
sS'Ingest.glider-eng-glider_recovered'
p90
g2
sS'Ingest.spkir-abj-cspp_telemetered'
p91
g2
sS'Ingest.ctdav-n-auv_telemetered'
p92
g2
sS'Ingest.presf-abc-dcl_telemetered'
p93
g2
sS'Ingest.pco2w-abc-dcl_recovered'
p94
g2
sS'Ingest.nutnr-j-cspp_telemetered'
p95
g2
sS'Ingest.dosta-abcdjm-cspp_recovered'
p96
g2
sS'Ingest.dosta-ln-wfp-sio-mule_telemetered'
p97
g2
sS'Ingest.pco2a-a-dcl_telemetered'
p98
g2
sS'Ingest.adcpt-acfgm-dcl-pd8_telemetered'
p99
g2
sS'Ingest.mopak-o-dcl_recovered'
p100
g2
sS'Ingest.hyd-o-dcl_recovered'
p101
g2
sS'Ingest.mopak-o-dcl_telemetered'
p102
g2
sS'Ingest.dosta-abcdjm-sio_telemetered'
p103
g2
sS'Ingest.optaa-ac-mmp-cds_recovered'
p104
g2
sS'Ingest.parad-j-cspp_recovered'
p105
g2
sS'Ingest.flort-m-glider_recovered'
p106
g2
sS'Ingest.adcpa-m-glider_recovered'
p107
g2
sS'Ingest.optaa-dj-cspp_recovered'
p108
g2
sS'Ingest.velpt-ab-dcl_recovered'
p109
g2
sS'Ingest.ctdgv-m-glider_telemetered'
p110
g2
sS'Ingest.cg-stc-eng-stc_telemetered'
p111
g2
sS'Ingest.adcps-jln-stc_telemetered'
p112
g2
sS'Ingest.flort-kn-auv_telemetered'
p113
g2
sS'Ingest.vel3d-cd-dcl_telemetered'
p114
g2
sS'Ingest.parad-j-cspp_telemetered'
p115
g2
sS'Ingest.ctdmo-ghqr_recovered'
p116
g2
sS'Ingest.ctdpf-ckl-mmp-cds_recovered'
p117
g2
sS'Ingest.dosta-abcdjm-dcl_telemetered'
p118
g2
sS'Ingest.nutnr-j-cspp_recovered'
p119
g2
sS'Ingest.sio-eng-sio_telemetered'
p120
g2
sS'Ingest.parad-m-glider_recovered'
p121
g2
sS'Ingest.adcpt-acfgm-dcl-pd8_recovered'
p122
g2
sS'Ingest.nutnr-b_recovered'
p123
g2
sS'Ingest.velpt-ab_recovered'
p124
g2
sS'Ingest.phsen-abcdef-dcl_recovered'
p125
g2
sS'Ingest.ctdbp-cdef_recovered'
p126
g2
sS'Ingest.phsen-abcdef-imodem_recovered'
p127
g2
sS'Ingest.velpt-ab-dcl_telemetered'
p128
g2
sS'Ingest.pco2a-a-dcl_recovered'
p129
g2
sS'Ingest.adcps-jln-sio_telemetered'
p130
g2
sS'Ingest.dosta-abcdjm-sio_recovered'
p131
g2
sS'Ingest.dofst-k-wfp_telemetered'
p132
g2
sS'Ingest.cg-stc-eng-stc_recovered'
p133
g2
sS'Ingest.fdchp-a_recovered'
p134
g2
sS'Ingest.flort-kn-stc-imodem_telemetered'
p135
g2
sS'Ingest.phsen-abcdef-dcl_telemetered'
p136
g2
sS'Ingest.phsen-abcdef-sio_telemetered'
p137
g2
sS'Ingest.flord-m-glider_telemetered'
p138
g2
sS'Ingest.auv-eng-auv_telemetered'
p139
g2
sS'Ingest.ctdpf-ckl-wfp-sio-mule_telemetered'
p140
g2
sS'Ingest.zplsc-c-dcl_telemetered'
p141
g2
sS'Ingest.nutnr-b-dcl-conc_recovered'
p142
g2
sS'Ingest.ctdgv-m-glider_recovered'
p143
g2
sS'Ingest.osmoi-a-subcon_recovered'
p144
g2
sS'Ingest.dosta-ln-auv_recovered'
p145
g2
sS'Ingest.glider-eng-glider_telemetered'
p146
g2
sS'Ingest.wc-wm-cspp_recovered'
p147
g2
sS'Ingest.flort-kn-auv_recovered'
p148
g2
sS'Ingest.flort-dj-cspp_telemetered'
p149
g2
sS'Ingest.dosta-abcdjm-cspp_telemetered'
p150
g2
sS'Ingest.ctdbp-cdef-dcl_telemetered'
p151
g2
sS'Ingest.dosta-abcdjm-glider_recovered'
p152
g2
sS'Ingest.cg-dcl-eng-dcl_recovered'
p153
g2
sS'Ingest.wavss-a-dcl-full_recovered'
p154
g2
sS'Ingest.wfp-eng-wfp-sio-mule_telemetered'
p155
g2
sS'Ingest.dosta-abcdjm-glider_telemetered'
p156
g2
sS'Ingest.dofst-k-wfp_recovered'
p157
g2
sS'Ingest.nutnr-b-dcl-full_telemetered'
p158
g2
sS'Ingest.vel3d-cd-dcl_recovered'
p159
g2
sS'Ingest.vel3d-a-mmp-cds_recovered'
p160
g2
sS'Ingest.ctdpf-ckl-wfp_telemetered'
p161
g2
sS'Ingest.wc-sbe-cspp_recovered'
p162
g2
sS'Ingest.flord-l-wfp-sio_telemetered'
p163
g2
sS'Ingest.wc-hmr-cspp_recovered'
p164
g2
sS'Ingest.nutnr-n_recovered'
p165
g2
sS'Ingest.dosta-abcdjm-mmp-cds_recovered'
p166
g2
sS'Ingest.ctdbp-cdef-dcl_recovered'
p167
g2
sS'Ingest.adcpt-m-log9_recovered'
p168
g2
sS'Ingest.adcps-jln_recovered'
p169
g2
sS'Ingest.spkir-abj-dcl_telemetered'
p170
g2
sS'Ingest.rte-o-dcl_recovered'
p171
g2
sS'Ingest.wc-hmr-cspp_telemetered'
p172
g2
sS'Ingest.fuelcell-eng-dcl_recovered'
p173
g2
sS'Ingest.metbk-a-dcl_telemetered'
p174
g2
s.