(dp0
S'Ingest.parad-k-stc-imodem_recovered'
p1
S'mi.dataset.driver.PARAD_K.STC_IMODEM.parad_k_stc_imodem_recovered_driver'
p2
sS'Ingest.flcdr-x-mmp-cds_recovered'
p3
S'mi.dataset.driver.flntu_x.mmp_cds.flcdr_x_mmp_cds_recovered_driver'
p4
sS'Ingest.dbg-pdbg-cspp_recovered'
p5
S'mi.dataset.driver.dbg_pdbg.cspp.dbg_pdbg_cspp_recovered_driver'
p6
sS'Ingest.dosta-abcdjm-ctdbp-dcl_recovered'
p7
S'mi.dataset.driver.dosta_abcdjm.ctdbp.dcl.dosta_abcdjm_ctdbp_dcl_recovered_driver'
p8
sS'Ingest.ctdbp-p-dcl_telemetered'
p9
S'mi.dataset.driver.ctdbp_p.dcl.ctdbp_p_dcl_telemetered_driver'
p10
sS'Ingest.ctdmo-ghqr-sio_ctRecovered'
p11
S'mi.dataset.driver.ctdmo_ghqr.sio.ctdmo_ghqr_sio_ct_recovered_driver'
p12
sS'Ingest.ctdmo-ghqr-sio_recovered'
p13
S'mi.dataset.driver.ctdmo_ghqr.sio.ctdmo_ghqr_sio_co_recovered_driver'
p14
sS'Ingest.sio-eng-sio_recovered'
p15
S'mi.dataset.driver.sio_eng.sio.sio_eng_sio_recovered_driver'
p16
sS'Ingest.wavss-a-dcl-full_telemetered'
p17
S'mi.dataset.driver.wavss_a.dcl.wavss_a_dcl_telemetered_driver'
p18
sS'Ingest.phsen-abcdef_recovered'
p19
S'mi.dataset.driver.phsen_abcdef.phsen_abcdef_recovered_driver'
p20
sS'Ingest.flntu-x-mmp-cds_recovered'
p21
S'mi.dataset.driver.flntu_x.mmp_cds.flntu_x_mmp_cds_recovered_driver'
p22
sS'Ingest.spkir-abj-dcl_recovered'
p23
S'mi.dataset.driver.spkir_abj.dcl.spkir_abj_dcl_recovered_driver'
p24
sS'Ingest.optaa-dj-dcl_telemetered'
p25
S'mi.dataset.driver.optaa_dj.dcl.optaa_dj_dcl_telemetered_driver'
p26
sS'Ingest.dosta-abcdjm-ctdbp_recovered'
p27
S'mi.dataset.driver.dosta_abcdjm.ctdbp.dosta_abcdjm_ctdbp_recovered_driver'
p28
sS'Ingest.wfp-eng-stc-imodem_telemetered'
p29
S'mi.dataset.driver.WFP_ENG.STC_IMODEM.wfp_eng_stc_imodem_telemetered_driver'
p30
sS'Ingest.vel3d-k-wfp-stc_telemetered'
p31
S'mi.dataset.driver.vel3d_k.wfp_stc.vel3d_k_wfp_stc_telemetered_driver'
p32
sS'Ingest.fuelcell-eng-dcl_telemetered'
p33
S'mi.dataset.driver.fuelcell_eng.dcl.fuelcell_eng_dcl_telemetered_driver'
p34
sS'Ingest.velpt-j-cspp_recovered'
p35
S'mi.dataset.driver.velpt_j.cspp.velpt_j_cspp_recovered_driver'
p36
sS'Ingest.rasfl-a-subcon_recovered'
p37
S'mi.dataset.driver.rasfl.rasfl_a_subcon_recovered_driver'
p38
sS'Ingest.optaa-dj-dcl_recovered'
p39
S'mi.dataset.driver.optaa_dj.dcl.optaa_dj_dcl_recovered_driver'
p40
sS'Ingest.flort-kn-stc-imodem_recovered'
p41
S'mi.dataset.driver.flort_kn.stc_imodem.flort_kn__stc_imodem_recovered_driver'
p42
sS'Ingest.flord-l-wfp_recovered'
p43
S'mi.dataset.driver.flord_l_wfp.flord_l_wfp_recovered_driver'
p44
sS'Ingest.adcpt-m-fcoeff_recovered'
p45
S'mi.dataset.driver.adcpt_m.adcpt_m_fcoeff_recovered_driver'
p46
sS'Ingest.wc-wm-cspp_telemetered'
p47
S'mi.dataset.driver.wc_wm.cspp.wc_wm_cspp_telemetered_driver'
p48
sS'Ingest.flobn-m-subcon_recovered'
p49
S'mi.dataset.driver.flobn.flobn_m_subcon_recovered_driver'
p50
sS'Ingest.dosta-abcdjm-ctdbp-p-dcl_recovered'
p51
S'mi.dataset.driver.dosta_abcdjm.ctdbp_p.dcl.dosta_abcdjm_ctdbp_p_dcl_recovered_driver'
p52
sS'Ingest.fdchp-a-dcl_recovered'
p53
S'mi.dataset.driver.fdchp_a.dcl.fdchp_a_dcl_recovered_driver'
p54
sS'Ingest.flort-dj-sio_telemetered'
p55
S'mi.dataset.driver.flort_dj.sio.flort_dj_sio_telemetered_driver'
p56
sS'Ingest.adcpa-n_recovered'
p57
S'mi.dataset.driver.adcpa_n.adcpa_n_recovered_driver'
p58
sS'Ingest.flort-m-glider_telemetered'
p59
S'mi.dataset.driver.moas.gl.flort_m.flort_m_glider_telemetered_driver'
p60
sS'Ingest.rte-o-dcl_telemetered'
p61
S'mi.dataset.driver.cg_stc_eng.stc.rte_o_dcl_telemetered_driver'
p62
sS'Ingest.flobn-m-subcon-temperature_recovered'
p63
S'mi.dataset.driver.flobn.flobn_m_subcon_temperature_recovered_driver'
p64
sS'Ingest.flort-o-glider_recovered'
p65
S'mi.dataset.driver.moas.gl.flort_o.flort_o_glider_recovered_driver'
p66
sS'Ingest.wc-wm-cspp_recovered'
p67
S'mi.dataset.driver.wc_wm.cspp.wc_wm_cspp_recovered_driver'
p68
sS'Ingest.ctdmo-ghqr-sio_telemetered'
p69
S'mi.dataset.driver.ctdmo_ghqr.sio.ctdmo_ghqr_sio_telemetered_driver'
p70
sS'Ingest.parad-m-glider_telemetered'
p71
S'mi.dataset.driver.moas.gl.parad.parad_m_glider_telemetered_driver'
p72
sS'Ingest.ctdbp-p-dcl_recovered'
p73
S'mi.dataset.driver.ctdbp_p.dcl.ctdbp_p_dcl_recovered_driver'
p74
sS'Ingest.ctdmo-ghqr-imodem_telemetered'
p75
S'mi.dataset.driver.ctdmo_ghqr.imodem.ctdmo_ghqr_imodem_telemetered_driver'
p76
sS'Ingest.pco2w-abc-imodem_recovered'
p77
S'mi.dataset.driver.pco2w_abc.imodem.pco2w_abc_imodem_recovered_driver'
p78
sS'Ingest.flobn-c-subcon_recovered'
p79
S'mi.dataset.driver.flobn.flobn_c_subcon_recovered_driver'
p80
sS'Ingest.adcpa-n-auv_telemetered'
p81
S'mi.dataset.driver.adcpa_n.auv.adcpa_n_auv_telemetered_driver'
p82
sS'Ingest.dosta-abcdjm-ctdbp-dcl_telemetered'
p83
S'mi.dataset.driver.dosta_abcdjm.ctdbp.dcl.dosta_abcdjm_ctdbp_dcl_telemetered_driver'
p84
sS'Ingest.adcpt-acfgm-dcl-pd0_telemetered'
p85
S'mi.dataset.driver.adcpt_acfgm.dcl.pd0.adcpt_acfgm_dcl_pd0_telemetered_driver'
p86
sS'Ingest.parad-n-auv_telemetered'
p87
S'mi.dataset.driver.parad_n.auv.parad_n_auv_telemetered_driver'
p88
sS'Ingest.hyd-o-dcl_telemetered'
p89
S'mi.dataset.driver.hyd_o.dcl.hyd_o_dcl_telemetered_driver'
p90
sS'Ingest.flort-dj-dcl_recovered'
p91
S'mi.dataset.driver.flort_dj.dcl.flort_dj_dcl_recovered_driver'
p92
sS'Ingest.dosta-abcdjm-dcl_recovered'
p93
S'mi.dataset.driver.dosta_abcdjm.dcl.dosta_abcdjm_dcl_recovered_driver'
p94
sS'Ingest.adcpt-acfgm-dcl-pd0_recovered'
p95
S'mi.dataset.driver.adcpt_acfgm.dcl.pd0.adcpt_acfgm_dcl_pd0_recovered_driver'
p96
sS'Ingest.adcpa-m-glider_telemetered'
p97
S'mi.dataset.driver.moas.gl.adcpa.adcpa_m_glider_telemetered_driver'
p98
sS'Ingest.vel3d-l-wfp_recovered'
p99
S'mi.dataset.driver.vel3d_l.wfp.vel3d_l_wfp_recovered_driver'
p100
sS'Ingest.deep-profiler_recovered'
p101
S'mi.dataset.driver.dpc.dpc_driver'
p102
sS'Ingest.ctdpf-j-cspp_telemetered'
p103
S'mi.dataset.driver.ctdpf_j.cspp.ctdpf_j_cspp_telemetered_driver'
p104
sS'Ingest.adcpt-m-dspec_recovered'
p105
S'mi.dataset.driver.adcpt_m.adcpt_m_dspec_recovered_driver'
p106
sS'Ingest.ctdpf-j-cspp_recovered'
p107
S'mi.dataset.driver.ctdpf_j.cspp.ctdpf_j_cspp_recovered_driver'
p108
sS'Ingest.dosta-ln-auv_telemetered'
p109
S'mi.dataset.driver.dosta_ln.auv.dosta_ln_auv_telemetered_driver'
p110
sS'Ingest.ctdmo-ghqr-imodem_recovered'
p111
S'mi.dataset.driver.ctdmo_ghqr.imodem.ctdmo_ghqr_imodem_recovered_driver'
p112
sS'Ingest.fdchp-a-dcl_telemetered'
p113
S'mi.dataset.driver.fdchp_a.dcl.fdchp_a_dcl_telemetered_driver'
p114
sS'Ingest.cspp-eng-dcl_telemetered'
p115
S'mi.dataset.driver.cspp_eng.dcl.cspp_eng_dcl_driver'
p116
sS'Ingest.auv-eng-auv_recovered'
p117
S'mi.dataset.driver.auv_eng.auv.auv_eng_auv_recovered_driver'
p118
sS'Ingest.dbg-pdbg-cspp_telemetered'
p119
S'mi.dataset.driver.dbg_pdbg.cspp.dbg_pdbg_cspp_telemetered_driver'
p120
sS'Ingest.phsen-abcdef-imodem_telemetered'
p121
S'mi.dataset.driver.phsen_abcdef.imodem.phsen_abcdef_imodem_telemetered_driver'
p122
sS'Ingest.optaa-dj-cspp_telemetered'
p123
S'mi.dataset.driver.optaa_dj.cspp.optaa_dj_cspp_telemetered_driver'
p124
sS'Ingest.velpt-j-cspp_telemetered'
p125
S'mi.dataset.driver.velpt_j.cspp.velpt_j_cspp_telemetered_driver'
p126
sS'Ingest.wfp-eng-stc-imodem_recovered'
p127
S'mi.dataset.driver.WFP_ENG.STC_IMODEM.wfp_eng_stc_imodem_recovered_driver'
p128
sS'Ingest.parad-n-auv_recovered'
p129
S'mi.dataset.driver.parad_n.auv.parad_n_auv_recovered_driver'
p130
sS'Ingest.nutnr-b-dcl-conc_telemetered'
p131
S'mi.dataset.driver.nutnr_b.dcl_conc.nutnr_b_dcl_conc_telemetered_driver'
p132
sS'Ingest.pco2a-a-dcl_telemetered'
p133
S'mi.dataset.driver.pco2a_a.dcl.pco2a_a_dcl_telemetered_driver'
p134
sS'Ingest.adcps-jln-stc_recovered'
p135
S'mi.dataset.driver.adcps_jln.stc.adcps_jln_stc_recovered_driver'
p136
sS'Ingest.ctdav-n-auv_recovered'
p137
S'mi.dataset.driver.ctdav_n.auv.ctdav_n_auv_recovered_driver'
p138
sS'Ingest.pco2w-abc-imodem_telemetered'
p139
S'mi.dataset.driver.pco2w_abc.imodem.pco2w_abc_imodem_telemetered_driver'
p140
sS'Ingest.flort-dj-cspp_recovered'
p141
S'mi.dataset.driver.flort_dj.cspp.flort_dj_cspp_recovered_driver'
p142
sS'Ingest.nutnr-m_recovered'
p143
S'mi.dataset.driver.nutnr_m.nutnr_m_recovered_driver'
p144
sS'Ingest.ppsdn-a-subcon_recovered'
p145
S'mi.dataset.driver.ppsdn.ppsdn_a_subcon_recovered_driver'
p146
sS'Ingest.presf-abc-dcl_recovered'
p147
S'mi.dataset.driver.presf_abc.dcl.presf_abc_dcl_recovered_driver'
p148
sS'Ingest.ctdpf-ckl-wfp_recovered'
p149
S'mi.dataset.driver.ctdpf_ckl.wfp.ctdpf_ckl_wfp_recovered_driver'
p150
sS'Ingest.cg-dcl-eng-dcl_telemetered'
p151
S'mi.dataset.driver.cg_dcl_eng.dcl.cg_dcl_eng_dcl_telemetered_driver'
p152
sS'Ingest.vel3d-l-wfp-sio_telemetered'
p153
S'mi.dataset.driver.vel3d_l.wfp.sio.vel3d_l_wfp_sio_telemetered_driver'
p154
sS'Ingest.cg-cpm-eng-cpm_telemetered'
p155
S'mi.dataset.driver.cg_cpm_eng.cpm.cg_cpm_eng_cpm_telemetered_driver'
p156
sS'Ingest.nutnr-m-glider_telemetered'
p157
S'mi.dataset.driver.nutnr_m.glider.nutnr_m_glider_telemetered_driver'
p158
sS'Ingest.parad-k-stc-imodem_telemetered'
p159
S'mi.dataset.driver.PARAD_K.STC_IMODEM.parad_k_stc_imodem_telemetered_driver'
p160
sS'Ingest.metbk-a-dcl_recovered'
p161
S'mi.dataset.driver.metbk_a.dcl.metbk_a_dcl_recovered_driver'
p162
sS'Ingest.spkir-abj-cspp_recovered'
p163
S'mi.dataset.driver.spkir_abj.cspp.spkir_abj_cspp_recovered_driver'
p164
sS'Ingest.adcpt-m-wvs_recovered'
p165
S'mi.dataset.driver.adcpt_m.wvs.adcpt_m_wvs_recovered_driver'
p166
sS'Ingest.pco2w-abc-dcl_telemetered'
p167
S'mi.dataset.driver.pco2w_abc.dcl.pco2w_abc_dcl_telemetered_driver'
p168
sS'Ingest.wc-sbe-cspp_telemetered'
p169
S'mi.dataset.driver.wc_sbe.cspp.wc_sbe_cspp_telemetered_driver'
p170
sS'Ingest.adcps-jln-sio_recovered'
p171
S'mi.dataset.driver.adcps_jln.adcps_jln_driver'
p172
sS'Ingest.winch-cspp_telemetered'
p173
S'mi.dataset.driver.winch_cspp.winch_cspp_driver'
p174
sS'Ingest.nutnr-b-dcl-full_recovered'
p175
S'mi.dataset.driver.nutnr_b.dcl_full.nutnr_b_dcl_full_recovered_driver'
p176
sS'Ingest.pco2w-abc_recovered'
p177
S'mi.dataset.driver.pco2w_abc.pco2w_abc_recovered_driver'
p178
sS'Ingest.flort-dj-sio_recovered'
p179
S'mi.dataset.driver.flort_dj.sio.flort_dj_sio_recovered_driver'
p180
sS'Ingest.cg-cpm-eng-cpm_recovered'
p181
S'mi.dataset.driver.cg_cpm_eng.cpm.cg_cpm_eng_cpm_recovered_driver'
p182
sS'Ingest.flord-m-glider_recovered'
p183
S'mi.dataset.driver.moas.gl.flord_m.flord_m_glider_recovered_driver'
p184
sS'Ingest.vel3d-k-wfp-stc_recovered'
p185
S'mi.dataset.driver.vel3d_k.wfp.vel3d_k_wfp_recovered_driver'
p186
sS'Ingest.dosta-ln-wfp_recovered'
p187
S'mi.dataset.driver.dosta_ln.wfp.dosta_ln_wfp_driver'
p188
sS'Ingest.nutnr-n-auv_telemetered'
p189
S'mi.dataset.driver.nutnr_n.auv.nutnr_n_auv_telemetered_driver'
p190
sS'Ingest.glider-eng-glider_recovered'
p191
S'mi.dataset.driver.moas.gl.engineering.glider_eng_glider_recovered_driver'
p192
sS'Ingest.spkir-abj-cspp_telemetered'
p193
S'mi.dataset.driver.spkir_abj.cspp.spkir_abj_cspp_telemetered_driver'
p194
sS'Ingest.ctdav-n-auv_telemetered'
p195
S'mi.dataset.driver.ctdav_n.auv.ctdav_n_auv_telemetered_driver'
p196
sS'Ingest.presf-abc_recovered'
p197
S'mi.dataset.driver.presf_abc.presf_abc_recovered_driver'
p198
sS'Ingest.presf-abc-dcl_telemetered'
p199
S'mi.dataset.driver.presf_abc.dcl.presf_abc_dcl_telemetered_driver'
p200
sS'Ingest.pco2w-abc-dcl_recovered'
p201
S'mi.dataset.driver.pco2w_abc.dcl.pco2w_abc_dcl_recovered_driver'
p202
sS'Ingest.nutnr-j-cspp_telemetered'
p203
S'mi.dataset.driver.nutnr_j.cspp.nutnr_j_cspp_telemetered_driver'
p204
sS'Ingest.dosta-abcdjm-cspp_recovered'
p205
S'mi.dataset.driver.dosta_abcdjm.cspp.dosta_abcdjm_cspp_recovered_driver'
p206
sS'Ingest.dosta-ln-wfp-sio-mule_telemetered'
p207
S'mi.dataset.driver.dosta_ln.wfp_sio.dosta_ln_wfp_sio_telemetered_driver'
p208
sS'Ingest.dosta-abcdjm-ctdbp-p-dcl_telemetered'
p209
S'mi.dataset.driver.dosta_abcdjm.ctdbp_p.dcl.dosta_abcdjm_ctdbp_p_dcl_telemetered_driver'
p210
sS'Ingest.adcpt-acfgm-dcl-pd8_telemetered'
p211
S'mi.dataset.driver.adcpt_acfgm.dcl.pd8.adcpt_acfgm_dcl_pd8_telemetered_driver'
p212
sS'Ingest.mopak-o-dcl_recovered'
p213
S'mi.dataset.driver.cg_stc_eng.stc.mopak_o_dcl_recovered_driver'
p214
sS'Ingest.hyd-o-dcl_recovered'
p215
S'mi.dataset.driver.hyd_o.dcl.hyd_o_dcl_recovered_driver'
p216
sS'Ingest.mopak-o-dcl_telemetered'
p217
S'mi.dataset.driver.cg_stc_eng.stc.mopak_o_dcl_telemetered_driver'
p218
sS'Ingest.dosta-abcdjm-sio_telemetered'
p219
S'mi.dataset.driver.dosta_abcdjm.sio.dosta_abcdjm_sio_telemetered_driver'
p220
sS'Ingest.zplsc-c_recovered'
p221
S'mi.dataset.driver.zplsc_c.zplsc_c_recovered_driver'
p222
sS'Ingest.flord-g-ctdbp-p-dcl_telemetered'
p223
S'mi.dataset.driver.flord_g.ctdbp_p.dcl.flord_g_ctdbp_p_dcl_telemetered_driver'
p224
sS'Ingest.parad-j-cspp_recovered'
p225
S'mi.dataset.driver.parad_j.cspp.parad_j_cspp_recovered_driver'
p226
sS'Ingest.flort-m-glider_recovered'
p227
S'mi.dataset.driver.moas.gl.flort_m.flort_m_glider_recovered_driver'
p228
sS'Ingest.optaa-ac-mmp-cds_recovered'
p229
S'mi.dataset.driver.optaa_ac.mmp_cds.optaa_ac_mmp_cds_recovered_driver'
p230
sS'Ingest.flort-o-glider_telemetered'
p231
S'mi.dataset.driver.moas.gl.flort_o.flort_o_glider_telemetered_driver'
p232
sS'Ingest.adcpa-m-glider_recovered'
p233
S'mi.dataset.driver.moas.gl.adcpa.adcpa_m_glider_recovered_driver'
p234
sS'Ingest.optaa-dj-cspp_recovered'
p235
S'mi.dataset.driver.optaa_dj.cspp.optaa_dj_cspp_recovered_driver'
p236
sS'Ingest.velpt-ab-dcl_recovered'
p237
S'mi.dataset.driver.velpt_ab.dcl.velpt_ab_dcl_recovered_driver'
p238
sS'Ingest.ctdgv-m-glider_telemetered'
p239
S'mi.dataset.driver.moas.gl.ctdgv.ctdgv_m_glider_telemetered_driver'
p240
sS'Ingest.cg-stc-eng-stc_telemetered'
p241
S'mi.dataset.driver.cg_stc_eng.stc.cg_stc_eng_stc_telemetered_driver'
p242
sS'Ingest.adcps-jln-stc_telemetered'
p243
S'mi.dataset.driver.adcps_jln.stc.adcps_jln_stc_telemetered_driver'
p244
sS'Ingest.flort-kn-auv_telemetered'
p245
S'mi.dataset.driver.flort_kn.auv.flort_kn_auv_telemetered_driver'
p246
sS'Ingest.vel3d-cd-dcl_telemetered'
p247
S'mi.dataset.driver.vel3d_cd.dcl.vel3d_cd_dcl_telemetered_driver'
p248
sS'Ingest.parad-j-cspp_telemetered'
p249
S'mi.dataset.driver.parad_j.cspp.parad_j_cspp_telemetered_driver'
p250
sS'Ingest.ctdmo-ghqr_recovered'
p251
S'mi.dataset.driver.ctdmo_ghqr.sio.ctdmo_ghqr_ct_recovered_driver'
p252
sS'Ingest.ctdpf-ckl-mmp-cds_recovered'
p253
S'mi.dataset.driver.ctdpf_ckl.mmp_cds.ctdpf_ckl_mmp_cds_recovered_driver'
p254
sS'Ingest.dosta-abcdjm-dcl_telemetered'
p255
S'mi.dataset.driver.dosta_abcdjm.dcl.dosta_abcdjm_dcl_telemetered_driver'
p256
sS'Ingest.flort-dj-dcl_telemetered'
p257
S'mi.dataset.driver.flort_dj.dcl.flort_dj_dcl_telemetered_driver'
p258
sS'Ingest.nutnr-j-cspp_recovered'
p259
S'mi.dataset.driver.nutnr_j.cspp.nutnr_j_cspp_recovered_driver'
p260
sS'Ingest.sio-eng-sio_telemetered'
p261
S'mi.dataset.driver.sio_eng.sio.sio_eng_sio_telemetered_driver'
p262
sS'Ingest.parad-m-glider_recovered'
p263
S'mi.dataset.driver.moas.gl.parad.parad_m_glider_recovered_driver'
p264
sS'Ingest.adcpt-acfgm-dcl-pd8_recovered'
p265
S'mi.dataset.driver.adcpt_acfgm.dcl.pd8.adcpt_acfgm_dcl_pd8_recovered_driver'
p266
sS'Ingest.nutnr-b_recovered'
p267
S'mi.dataset.driver.nutnr_b.nutnr_b_recovered_driver'
p268
sS'Ingest.velpt-ab_recovered'
p269
S'mi.dataset.driver.velpt_ab.velpt_ab_recovered_driver'
p270
sS'Ingest.phsen-abcdef-dcl_recovered'
p271
S'mi.dataset.driver.phsen_abcdef.dcl.phsen_abcdef_dcl_recovered_driver'
p272
sS'Ingest.ctdbp-cdef_recovered'
p273
S'mi.dataset.driver.ctdbp_cdef.ctdbp_cdef_recovered_driver'
p274
sS'Ingest.phsen-abcdef-imodem_recovered'
p275
S'mi.dataset.driver.phsen_abcdef.imodem.phsen_abcdef_imodem_recovered_driver'
p276
sS'Ingest.velpt-ab-dcl_telemetered'
p277
S'mi.dataset.driver.velpt_ab.dcl.velpt_ab_dcl_telemetered_driver'
p278
sS'Ingest.flord-g-ctdbp-p-dcl_recovered'
p279
S'mi.dataset.driver.flord_g.ctdbp_p.dcl.flord_g_ctdbp_p_dcl_recovered_driver'
p280
sS'Ingest.pco2a-a-dcl_recovered'
p281
S'mi.dataset.driver.pco2a_a.dcl.pco2a_a_dcl_recovered_driver'
p282
sS'Ingest.adcps-jln-sio_telemetered'
p283
S'mi.dataset.driver.adcps_jln.sio.adcps_jln_sio_telemetered_driver'
p284
sS'Ingest.dosta-abcdjm-sio_recovered'
p285
S'mi.dataset.driver.dosta_abcdjm.sio.dosta_abcdjm_sio_recovered_driver'
p286
sS'Ingest.dofst-k-wfp_telemetered'
p287
S'mi.dataset.driver.dofst_k.wfp.dofst_k_wfp_telemetered_driver'
p288
sS'Ingest.cg-stc-eng-stc_recovered'
p289
S'mi.dataset.driver.cg_stc_eng.stc.cg_stc_eng_stc_recovered_driver'
p290
sS'Ingest.fdchp-a_recovered'
p291
S'mi.dataset.driver.fdchp_a.fdchp_a_recovered_driver'
p292
sS'Ingest.flort-kn-stc-imodem_telemetered'
p293
S'mi.dataset.driver.flort_kn.stc_imodem.flort_kn__stc_imodem_telemetered_driver'
p294
sS'Ingest.phsen-abcdef-dcl_telemetered'
p295
S'mi.dataset.driver.phsen_abcdef.dcl.phsen_abcdef_dcl_telemetered_driver'
p296
sS'Ingest.phsen-abcdef-sio_telemetered'
p297
S'mi.dataset.driver.phsen_abcdef.sio.phsen_abcdef_sio_telemetered_driver'
p298
sS'Ingest.flord-m-glider_telemetered'
p299
S'mi.dataset.driver.moas.gl.flord_m.flord_m_glider_telemetered_driver'
p300
sS'Ingest.auv-eng-auv_telemetered'
p301
S'mi.dataset.driver.auv_eng.auv.auv_eng_auv_telemetered_driver'
p302
sS'Ingest.ctdpf-ckl-wfp-sio-mule_telemetered'
p303
S'mi.dataset.driver.ctdpf_ckl.wfp_sio.ctdpf_ckl_wfp_sio_telemetered_driver'
p304
sS'Ingest.zplsc-c-dcl_telemetered'
p305
S'mi.dataset.driver.zplsc_c.dcl.zplsc_c_dcl_telemetered_driver'
p306
sS'Ingest.nutnr-b-dcl-conc_recovered'
p307
S'mi.dataset.driver.nutnr_b.dcl_conc.nutnr_b_dcl_conc_recovered_driver'
p308
sS'Ingest.ctdgv-m-glider_recovered'
p309
S'mi.dataset.driver.moas.gl.ctdgv.ctdgv_m_glider_recovered_driver'
p310
sS'Ingest.osmoi-a-subcon_recovered'
p311
S'mi.dataset.driver.osmoi.osmoi_a_subcon_recovered_driver'
p312
sS'Ingest.dosta-ln-auv_recovered'
p313
S'mi.dataset.driver.dosta_ln.auv.dosta_ln_auv_recovered_driver'
p314
sS'Ingest.glider-eng-glider_telemetered'
p315
S'mi.dataset.driver.moas.gl.engineering.glider_eng_glider_telemetered_driver'
p316
sS'Ingest.dosta-abcdjm-ctdbp-p_recovered'
p317
S'mi.dataset.driver.dosta_abcdjm.ctdbp_p.dosta_abcdjm_ctdbp_p_recovered_driver'
p318
sS'Ingest.flort-kn-auv_recovered'
p319
S'mi.dataset.driver.flort_kn.auv.flort_kn_auv_recovered_driver'
p320
sS'Ingest.flort-dj-cspp_telemetered'
p321
S'mi.dataset.driver.flort_dj.cspp.flort_dj_cspp_telemetered_driver'
p322
sS'Ingest.dosta-abcdjm-cspp_telemetered'
p323
S'mi.dataset.driver.dosta_abcdjm.cspp.dosta_abcdjm_cspp_telemetered_driver'
p324
sS'Ingest.ctdbp-cdef-dcl_telemetered'
p325
S'mi.dataset.driver.ctdbp_cdef.dcl.ctdbp_cdef_dcl_telemetered_driver'
p326
sS'Ingest.dosta-abcdjm-glider_recovered'
p327
S'mi.dataset.driver.moas.gl.dosta.dosta_abcdjm_glider_recovered_driver'
p328
sS'Ingest.cg-dcl-eng-dcl_recovered'
p329
S'mi.dataset.driver.cg_dcl_eng.dcl.cg_dcl_eng_dcl_recovered_driver'
p330
sS'Ingest.wavss-a-dcl-full_recovered'
p331
S'mi.dataset.driver.wavss_a.dcl.wavss_a_dcl_recovered_driver'
p332
sS'Ingest.wfp-eng-wfp-sio-mule_telemetered'
p333
S'mi.dataset.driver.WFP_ENG.wfp_sio.wfp_eng_wfp_sio_telemetered_driver'
p334
sS'Ingest.dosta-abcdjm-glider_telemetered'
p335
S'mi.dataset.driver.moas.gl.dosta.dosta_abcdjm_glider_telemetered_driver'
p336
sS'Ingest.dofst-k-wfp_recovered'
p337
S'mi.dataset.driver.dofst_k.wfp.dofst_k_wfp_recovered_driver'
p338
sS'Ingest.nutnr-b-dcl-full_telemetered'
p339
S'mi.dataset.driver.nutnr_b.dcl_full.nutnr_b_dcl_full_telemetered_driver'
p340
sS'Ingest.vel3d-cd-dcl_recovered'
p341
S'mi.dataset.driver.vel3d_cd.dcl.vel3d_cd_dcl_recovered_driver'
p342
sS'Ingest.vel3d-a-mmp-cds_recovered'
p343
S'mi.dataset.driver.vel3d_a.mmp_cds.vel3d_a_mmp_cds_recovered_driver'
p344
sS'Ingest.ctdpf-ckl-wfp_telemetered'
p345
S'mi.dataset.driver.ctdpf_ckl.wfp.ctdpf_ckl_wfp_telemetered_driver'
p346
sS'Ingest.flord-g-ctdbp-p_recovered'
p347
S'mi.dataset.driver.flord_g.ctdbp_p.flord_g_ctdbp_p_recovered_driver'
p348
sS'Ingest.wc-sbe-cspp_recovered'
p349
S'mi.dataset.driver.wc_sbe.cspp.wc_sbe_cspp_recovered_driver'
p350
sS'Ingest.flord-l-wfp-sio_telemetered'
p351
S'mi.dataset.driver.flord_l_wfp.sio.flord_l_wfp_sio_telemetered_driver'
p352
sS'Ingest.wc-hmr-cspp_recovered'
p353
S'mi.dataset.driver.wc_hmr.cspp.wc_hmr_cspp_recovered_driver'
p354
sS'Ingest.nutnr-n_recovered'
p355
S'mi.dataset.driver.nutnr_n.nutnr_n_recovered_driver'
p356
sS'Ingest.dosta-abcdjm-mmp-cds_recovered'
p357
S'mi.dataset.driver.dosta_abcdjm.mmp_cds.dosta_abcdjm_mmp_cds_recovered_driver'
p358
sS'Ingest.ctdbp-cdef-dcl_recovered'
p359
S'mi.dataset.driver.ctdbp_cdef.dcl.ctdbp_cdef_dcl_recovered_driver'
p360
sS'Ingest.adcpt-m-log9_recovered'
p361
S'mi.dataset.driver.adcpt_m.adcpt_m_log9_recovered_driver'
p362
sS'Ingest.adcps-jln_recovered'
p363
S'mi.dataset.driver.adcps_jln.adcps_jln_driver'
p364
sS'Ingest.spkir-abj-dcl_telemetered'
p365
S'mi.dataset.driver.spkir_abj.dcl.spkir_abj_dcl_telemetered_driver'
p366
sS'Ingest.ctdbp-p_recovered'
p367
S'mi.dataset.driver.ctdbp_p.ctdbp_p_recovered_driver'
p368
sS'Ingest.rte-o-dcl_recovered'
p369
S'mi.dataset.driver.cg_stc_eng.stc.rte_o_dcl_recovered_driver'
p370
sS'Ingest.wc-hmr-cspp_telemetered'
p371
S'mi.dataset.driver.wc_hmr.cspp.wc_hmr_cspp_telemetered_driver'
p372
sS'Ingest.fuelcell-eng-dcl_recovered'
p373
S'mi.dataset.driver.fuelcell_eng.dcl.fuelcell_eng_dcl_recovered_driver'
p374
sS'Ingest.camds-abc-dcl'
p375
S'mi.dataset.driver.camds.camds_abc_driver'
p376
sS'Ingest.metbk-a-dcl_telemetered'
p377
S'mi.dataset.driver.metbk_a.dcl.metbk_a_dcl_telemetered_driver'
p378
s.